target datalayout = "e-m:e-p270:32:32-p271:32:32-p272:64:64-i64:64-i128:128-f80:128-n8:16:32:64-S128"
target triple = "x86_64-pc-linux-gnu"

%struct.__va_list_tag = type { i32, i32, ptr, ptr }

@.str.28 = private unnamed_addr constant [6 x i8] c"%s,%s\00", align 1
@.str.29 = private unnamed_addr constant [4 x i8] c"...\00", align 1

; Function Attrs: nounwind uwtable
define dso_local void @php_error_docref2(ptr noundef %0, ptr noundef %1, ptr noundef %2, i32 noundef %3, ptr noundef %4, ...) #1 {
  %6 = alloca ptr, align 8
  %7 = alloca ptr, align 8
  %8 = alloca ptr, align 8
  %9 = alloca i32, align 4
  %10 = alloca ptr, align 8
  %11 = alloca ptr, align 8
  %12 = alloca [1 x %struct.__va_list_tag], align 16
  store ptr %0, ptr %6, align 8, !tbaa !14
  store ptr %1, ptr %7, align 8, !tbaa !14
  store ptr %2, ptr %8, align 8, !tbaa !14
  store i32 %3, ptr %9, align 4, !tbaa !50
  store ptr %4, ptr %10, align 8, !tbaa !14
  call void @llvm.lifetime.start.p0(i64 8, ptr %11) #18
  call void @llvm.lifetime.start.p0(i64 24, ptr %12) #18
  %13 = load ptr, ptr %7, align 8, !tbaa !14
  %14 = load ptr, ptr %8, align 8, !tbaa !14
  %15 = call i64 (ptr, i64, ptr, ...) @zend_spprintf(ptr noundef %11, i64 noundef 0, ptr noundef @.str.28, ptr noundef %13, ptr noundef %14)
  %16 = getelementptr inbounds [1 x %struct.__va_list_tag], ptr %12, i64 0, i64 0
  call void @llvm.va_start.p0(ptr %16)
  %17 = load ptr, ptr %6, align 8, !tbaa !14
  %18 = load ptr, ptr %11, align 8, !tbaa !14
  %19 = icmp ne ptr %18, null
  br i1 %19, label %20, label %22

20:                                               ; preds = %5
  %21 = load ptr, ptr %11, align 8, !tbaa !14
  br label %23

22:                                               ; preds = %5
  br label %23

23:                                               ; preds = %22, %20
  %24 = phi ptr [ %21, %20 ], [ @.str.29, %22 ]
  %25 = load i32, ptr %9, align 4, !tbaa !50
  %26 = load ptr, ptr %10, align 8, !tbaa !14
  %27 = getelementptr inbounds [1 x %struct.__va_list_tag], ptr %12, i64 0, i64 0
  call void @php_verror(ptr noundef %17, ptr noundef %24, i32 noundef %25, ptr noundef %26, ptr noundef %27)
  %28 = getelementptr inbounds [1 x %struct.__va_list_tag], ptr %12, i64 0, i64 0
  call void @llvm.va_end.p0(ptr %28)
  %29 = load ptr, ptr %11, align 8, !tbaa !14
  %30 = icmp ne ptr %29, null
  br i1 %30, label %31, label %33

31:                                               ; preds = %23
  %32 = load ptr, ptr %11, align 8, !tbaa !14
  call void @_efree(ptr noundef %32)
  br label %33

33:                                               ; preds = %31, %23
  call void @llvm.lifetime.end.p0(i64 24, ptr %12) #18
  call void @llvm.lifetime.end.p0(i64 8, ptr %11) #18
  ret void
}