; Function Attrs: nounwind uwtable
define dso_local void @php_error_docref2(ptr noundef %0, ptr noundef %1, ptr noundef %2, i32 noundef %3, ptr noundef %4, ...) local_unnamed_addr #2 {
  %6 = alloca ptr, align 8
  %7 = alloca [1 x %struct.__va_list_tag], align 16
  call void @llvm.lifetime.start.p0(i64 8, ptr nonnull %6) #28
  call void @llvm.lifetime.start.p0(i64 24, ptr nonnull %7) #28
  %8 = call i64 (ptr, i64, ptr, ...) @zend_spprintf(ptr noundef nonnull %6, i64 noundef 0, ptr noundef nonnull @.str.28, ptr noundef %1, ptr noundef %2) #28
  call void @llvm.va_start.p0(ptr nonnull %7)
  %9 = load ptr, ptr %6, align 8, !tbaa !12
  %.not = icmp eq ptr %9, null
  %10 = select i1 %.not, ptr @.str.29, ptr %9
  call void @php_verror(ptr noundef %0, ptr noundef nonnull %10, i32 noundef %3, ptr noundef %4, ptr noundef nonnull %7)
  call void @llvm.va_end.p0(ptr nonnull %7)
  %11 = load ptr, ptr %6, align 8, !tbaa !12
  %.not4 = icmp eq ptr %11, null
  br i1 %.not4, label %13, label %12

12:                                               ; preds = %5
  call void @_efree(ptr noundef nonnull %11) #28
  br label %13

13:                                               ; preds = %12, %5
  call void @llvm.lifetime.end.p0(i64 24, ptr nonnull %7) #28
  call void @llvm.lifetime.end.p0(i64 8, ptr nonnull %6) #28
  ret void
}